target datalayout = "e-m:e-p270:32:32-p271:32:32-p272:64:64-i64:64-i128:128-f80:128-n8:16:32:64-S128"
target triple = "x86_64-unknown-linux-gnu"

%"class.std::set" = type { %"class.std::_Rb_tree" }
%"class.std::_Rb_tree" = type { %"struct.std::_Rb_tree<std::__cxx11::basic_string<char>, std::__cxx11::basic_string<char>, std::_Identity<std::__cxx11::basic_string<char>>, re2::Prefilter::LengthThenLex>::_Rb_tree_impl" }
%"struct.std::_Rb_tree<std::__cxx11::basic_string<char>, std::__cxx11::basic_string<char>, std::_Identity<std::__cxx11::basic_string<char>>, re2::Prefilter::LengthThenLex>::_Rb_tree_impl" = type { %"struct.std::_Rb_tree_key_compare", %"struct.std::_Rb_tree_header" }
%"struct.std::_Rb_tree_key_compare" = type { %"struct.re2::Prefilter::LengthThenLex" }
%"struct.re2::Prefilter::LengthThenLex" = type { i8 }
%"struct.std::_Rb_tree_header" = type { %"struct.std::_Rb_tree_node_base", i64 }
%"struct.std::_Rb_tree_node_base" = type { i32, ptr, ptr, ptr }
%"class.re2::Prefilter::Info" = type { %"class.std::set", i8, ptr }

@_ZN3re29Prefilter4InfoC1Ev = unnamed_addr alias void (ptr), ptr @_ZN3re29Prefilter4InfoC2Ev
@_ZN3re29Prefilter4InfoD1Ev = unnamed_addr alias void (ptr), ptr @_ZN3re29Prefilter4InfoD2Ev

; Function Attrs: mustprogress uwtable
define noundef ptr @_ZN3re29Prefilter4Info6ConcatEPS1_S2_(ptr noundef %a, ptr noundef %b) #0 align 2 personality ptr @__gxx_personality_v0 {
entry:
  %retval = alloca ptr, align 8
  %a.addr = alloca ptr, align 8
  %b.addr = alloca ptr, align 8
  %ab = alloca ptr, align 8
  %exn.slot = alloca ptr, align 8
  %ehselector.slot = alloca i32, align 4
  store ptr %a, ptr %a.addr, align 8
  store ptr %b, ptr %b.addr, align 8
  %0 = load ptr, ptr %a.addr, align 8
  %cmp = icmp eq ptr %0, null
  br i1 %cmp, label %if.then, label %if.end

if.then:                                          ; preds = %entry
  %1 = load ptr, ptr %b.addr, align 8
  store ptr %1, ptr %retval, align 8
  br label %return

if.end:                                           ; preds = %entry
  %call = call noalias noundef nonnull ptr @_Znwm(i64 noundef 64) #14
  invoke void @_ZN3re29Prefilter4InfoC1Ev(ptr noundef nonnull align 8 dereferenceable(64) %call)
          to label %invoke.cont unwind label %lpad

invoke.cont:                                      ; preds = %if.end
  store ptr %call, ptr %ab, align 8
  %2 = load ptr, ptr %a.addr, align 8
  %exact_ = getelementptr inbounds %"class.re2::Prefilter::Info", ptr %2, i32 0, i32 0
  %3 = load ptr, ptr %b.addr, align 8
  %exact_1 = getelementptr inbounds %"class.re2::Prefilter::Info", ptr %3, i32 0, i32 0
  %4 = load ptr, ptr %ab, align 8
  %exact_2 = getelementptr inbounds %"class.re2::Prefilter::Info", ptr %4, i32 0, i32 0
  call void @_ZN3re29Prefilter12CrossProductERKSt3setINSt7__cxx1112basic_stringIcSt11char_traitsIcESaIcEEENS0_13LengthThenLexESaIS7_EESC_PSA_(ptr noundef nonnull align 8 dereferenceable(48) %exact_, ptr noundef nonnull align 8 dereferenceable(48) %exact_1, ptr noundef %exact_2)
  %5 = load ptr, ptr %ab, align 8
  %is_exact_ = getelementptr inbounds %"class.re2::Prefilter::Info", ptr %5, i32 0, i32 1
  store i8 1, ptr %is_exact_, align 8
  %6 = load ptr, ptr %a.addr, align 8
  %isnull = icmp eq ptr %6, null
  br i1 %isnull, label %delete.end, label %delete.notnull

delete.notnull:                                   ; preds = %invoke.cont
  call void @_ZN3re29Prefilter4InfoD1Ev(ptr noundef nonnull align 8 dereferenceable(64) %6) #13
  call void @_ZdlPv(ptr noundef %6) #15
  br label %delete.end

delete.end:                                       ; preds = %delete.notnull, %invoke.cont
  %7 = load ptr, ptr %b.addr, align 8
  %isnull3 = icmp eq ptr %7, null
  br i1 %isnull3, label %delete.end5, label %delete.notnull4

delete.notnull4:                                  ; preds = %delete.end
  call void @_ZN3re29Prefilter4InfoD1Ev(ptr noundef nonnull align 8 dereferenceable(64) %7) #13
  call void @_ZdlPv(ptr noundef %7) #15
  br label %delete.end5

delete.end5:                                      ; preds = %delete.notnull4, %delete.end
  %8 = load ptr, ptr %ab, align 8
  store ptr %8, ptr %retval, align 8
  br label %return

lpad:                                             ; preds = %if.end
  %9 = landingpad { ptr, i32 }
          cleanup
  %10 = extractvalue { ptr, i32 } %9, 0
  store ptr %10, ptr %exn.slot, align 8
  %11 = extractvalue { ptr, i32 } %9, 1
  store i32 %11, ptr %ehselector.slot, align 4
  call void @_ZdlPv(ptr noundef %call) #15
  br label %eh.resume

return:                                           ; preds = %delete.end5, %if.then
  %12 = load ptr, ptr %retval, align 8
  ret ptr %12

eh.resume:                                        ; preds = %lpad
  %exn = load ptr, ptr %exn.slot, align 8
  %sel = load i32, ptr %ehselector.slot, align 4
  %lpad.val = insertvalue { ptr, i32 } poison, ptr %exn, 0
  %lpad.val6 = insertvalue { ptr, i32 } %lpad.val, i32 %sel, 1
  resume { ptr, i32 } %lpad.val6
}