; Function Attrs: mustprogress uwtable
define noundef ptr @_ZN3re29Prefilter4Info6ConcatEPS1_S2_(ptr noundef %a, ptr noundef %b) local_unnamed_addr #0 align 2 personality ptr @__gxx_personality_v0 {
entry:
  %cmp = icmp eq ptr %a, null
  br i1 %cmp, label %return, label %if.end

if.end:                                           ; preds = %entry
  %call = tail call noalias noundef nonnull dereferenceable(64) ptr @_Znwm(i64 noundef 64) #17
  invoke void @_ZN3re29Prefilter4InfoC1Ev(ptr noundef nonnull align 8 dereferenceable(64) %call)
          to label %invoke.cont unwind label %lpad

invoke.cont:                                      ; preds = %if.end
  tail call void @_ZN3re29Prefilter12CrossProductERKSt3setINSt7__cxx1112basic_stringIcSt11char_traitsIcESaIcEEENS0_13LengthThenLexESaIS7_EESC_PSA_(ptr noundef nonnull align 8 dereferenceable(48) %a, ptr noundef nonnull align 8 dereferenceable(48) %b, ptr noundef nonnull %call)
  %is_exact_ = getelementptr inbounds i8, ptr %call, i64 48
  store i8 1, ptr %is_exact_, align 8
  tail call void @_ZN3re29Prefilter4InfoD1Ev(ptr noundef nonnull align 8 dereferenceable(64) %a) #16
  tail call void @_ZdlPv(ptr noundef nonnull %a) #18
  tail call void @_ZN3re29Prefilter4InfoD1Ev(ptr noundef nonnull align 8 dereferenceable(64) %b) #16
  tail call void @_ZdlPv(ptr noundef %b) #18
  br label %return

lpad:                                             ; preds = %if.end
  %0 = landingpad { ptr, i32 }
          cleanup
  tail call void @_ZdlPv(ptr noundef nonnull %call) #18
  resume { ptr, i32 } %0

return:                                           ; preds = %entry, %invoke.cont
  %retval.0 = phi ptr [ %call, %invoke.cont ], [ %b, %entry ]
  ret ptr %retval.0
}